target datalayout = "e-m:e-p270:32:32-p271:32:32-p272:64:64-i64:64-i128:128-f80:128-n8:16:32:64-S128"
target triple = "x86_64-unknown-linux-gnu"

%"class.msdfgen::BaseArtifactClassifier" = type <{ double, i8, [7 x i8] }>

; Function Attrs: mustprogress nounwind uwtable
define linkonce_odr dso_local noundef float @_ZN7msdfgen3maxIfEET_S1_S1_(float noundef %a, float noundef %b) #2 comdat {
entry:
  %a.addr = alloca float, align 4
  %b.addr = alloca float, align 4
  store float %a, ptr %a.addr, align 4
  store float %b, ptr %b.addr, align 4
  %0 = load float, ptr %a.addr, align 4
  %1 = load float, ptr %b.addr, align 4
  %cmp = fcmp olt float %0, %1
  br i1 %cmp, label %cond.true, label %cond.false

cond.true:                                        ; preds = %entry
  %2 = load float, ptr %b.addr, align 4
  br label %cond.end

cond.false:                                       ; preds = %entry
  %3 = load float, ptr %a.addr, align 4
  br label %cond.end

cond.end:                                         ; preds = %cond.false, %cond.true
  %cond = phi float [ %2, %cond.true ], [ %3, %cond.false ]
  ret float %cond
}

; Function Attrs: mustprogress nounwind uwtable
define linkonce_odr dso_local noundef float @_ZN7msdfgen3minIfEET_S1_S1_(float noundef %a, float noundef %b) #2 comdat {
entry:
  %a.addr = alloca float, align 4
  %b.addr = alloca float, align 4
  store float %a, ptr %a.addr, align 4
  store float %b, ptr %b.addr, align 4
  %0 = load float, ptr %b.addr, align 4
  %1 = load float, ptr %a.addr, align 4
  %cmp = fcmp olt float %0, %1
  br i1 %cmp, label %cond.true, label %cond.false

cond.true:                                        ; preds = %entry
  %2 = load float, ptr %b.addr, align 4
  br label %cond.end

cond.false:                                       ; preds = %entry
  %3 = load float, ptr %a.addr, align 4
  br label %cond.end

cond.end:                                         ; preds = %cond.false, %cond.true
  %cond = phi float [ %2, %cond.true ], [ %3, %cond.false ]
  ret float %cond
}

; Function Attrs: mustprogress uwtable
define linkonce_odr dso_local noundef float @_ZN7msdfgen6medianIfEET_S1_S1_S1_(float noundef %a, float noundef %b, float noundef %c) #0 comdat {
entry:
  %a.addr = alloca float, align 4
  %b.addr = alloca float, align 4
  %c.addr = alloca float, align 4
  store float %a, ptr %a.addr, align 4
  store float %b, ptr %b.addr, align 4
  store float %c, ptr %c.addr, align 4
  %0 = load float, ptr %a.addr, align 4
  %1 = load float, ptr %b.addr, align 4
  %call = call noundef float @_ZN7msdfgen3minIfEET_S1_S1_(float noundef %0, float noundef %1)
  %2 = load float, ptr %a.addr, align 4
  %3 = load float, ptr %b.addr, align 4
  %call1 = call noundef float @_ZN7msdfgen3maxIfEET_S1_S1_(float noundef %2, float noundef %3)
  %4 = load float, ptr %c.addr, align 4
  %call2 = call noundef float @_ZN7msdfgen3minIfEET_S1_S1_(float noundef %call1, float noundef %4)
  %call3 = call noundef float @_ZN7msdfgen3maxIfEET_S1_S1_(float noundef %call, float noundef %call2)
  ret float %call3
}

; Function Attrs: mustprogress nounwind uwtable
define linkonce_odr dso_local noundef float @_ZN7msdfgen3mixIfdEET_S1_S1_T0_(float noundef %a, float noundef %b, double noundef %weight) #2 comdat {
entry:
  %a.addr = alloca float, align 4
  %b.addr = alloca float, align 4
  %weight.addr = alloca double, align 8
  store float %a, ptr %a.addr, align 4
  store float %b, ptr %b.addr, align 4
  store double %weight, ptr %weight.addr, align 8
  %0 = load double, ptr %weight.addr, align 8
  %sub = fsub double 1.000000e+00, %0
  %1 = load float, ptr %a.addr, align 4
  %conv = fpext float %1 to double
  %2 = load double, ptr %weight.addr, align 8
  %3 = load float, ptr %b.addr, align 4
  %conv1 = fpext float %3 to double
  %mul2 = fmul double %2, %conv1
  %4 = call double @llvm.fmuladd.f64(double %sub, double %conv, double %mul2)
  %conv3 = fptrunc double %4 to float
  ret float %conv3
}

; Function Attrs: mustprogress nounwind uwtable
define linkonce_odr dso_local noundef zeroext i1 @_ZNK7msdfgen22BaseArtifactClassifier8evaluateEdfi(ptr noundef nonnull align 8 dereferenceable(9) %this, double noundef %t, float noundef %m, i32 noundef %flags) #2 comdat align 2 {
entry:
  %this.addr = alloca ptr, align 8
  %t.addr = alloca double, align 8
  %m.addr = alloca float, align 4
  %flags.addr = alloca i32, align 4
  store ptr %this, ptr %this.addr, align 8
  store double %t, ptr %t.addr, align 8
  store float %m, ptr %m.addr, align 4
  store i32 %flags, ptr %flags.addr, align 4
  %0 = load i32, ptr %flags.addr, align 4
  %and = and i32 %0, 2
  %cmp = icmp ne i32 %and, 0
  ret i1 %cmp
}

; Function Attrs: mustprogress uwtable
define linkonce_odr dso_local noundef i32 @_ZNK7msdfgen22BaseArtifactClassifier9rangeTestEdddfff(ptr noundef nonnull align 8 dereferenceable(9) %this, double noundef %at, double noundef %bt, double noundef %xt, float noundef %am, float noundef %bm, float noundef %xm) #0 comdat align 2 {
entry:
  %retval = alloca i32, align 4
  %this.addr = alloca ptr, align 8
  %at.addr = alloca double, align 8
  %bt.addr = alloca double, align 8
  %xt.addr = alloca double, align 8
  %am.addr = alloca float, align 4
  %bm.addr = alloca float, align 4
  %xm.addr = alloca float, align 4
  %axSpan = alloca double, align 8
  %bxSpan = alloca double, align 8
  store ptr %this, ptr %this.addr, align 8
  store double %at, ptr %at.addr, align 8
  store double %bt, ptr %bt.addr, align 8
  store double %xt, ptr %xt.addr, align 8
  store float %am, ptr %am.addr, align 4
  store float %bm, ptr %bm.addr, align 4
  store float %xm, ptr %xm.addr, align 4
  %this1 = load ptr, ptr %this.addr, align 8
  %0 = load float, ptr %am.addr, align 4
  %cmp = fcmp ogt float %0, 5.000000e-01
  br i1 %cmp, label %land.lhs.true, label %lor.lhs.false

land.lhs.true:                                    ; preds = %entry
  %1 = load float, ptr %bm.addr, align 4
  %cmp2 = fcmp ogt float %1, 5.000000e-01
  br i1 %cmp2, label %land.lhs.true3, label %lor.lhs.false

land.lhs.true3:                                   ; preds = %land.lhs.true
  %2 = load float, ptr %xm.addr, align 4
  %cmp4 = fcmp ole float %2, 5.000000e-01
  br i1 %cmp4, label %if.then, label %lor.lhs.false

lor.lhs.false:                                    ; preds = %land.lhs.true3, %land.lhs.true, %entry
  %3 = load float, ptr %am.addr, align 4
  %cmp5 = fcmp olt float %3, 5.000000e-01
  br i1 %cmp5, label %land.lhs.true6, label %lor.lhs.false10

land.lhs.true6:                                   ; preds = %lor.lhs.false
  %4 = load float, ptr %bm.addr, align 4
  %cmp7 = fcmp olt float %4, 5.000000e-01
  br i1 %cmp7, label %land.lhs.true8, label %lor.lhs.false10

land.lhs.true8:                                   ; preds = %land.lhs.true6
  %5 = load float, ptr %xm.addr, align 4
  %cmp9 = fcmp oge float %5, 5.000000e-01
  br i1 %cmp9, label %if.then, label %lor.lhs.false10

lor.lhs.false10:                                  ; preds = %land.lhs.true8, %land.lhs.true6, %lor.lhs.false
  %protectedFlag = getelementptr inbounds %"class.msdfgen::BaseArtifactClassifier", ptr %this1, i32 0, i32 1
  %6 = load i8, ptr %protectedFlag, align 8
  %tobool = trunc i8 %6 to i1
  br i1 %tobool, label %if.end34, label %land.lhs.true11

land.lhs.true11:                                  ; preds = %lor.lhs.false10
  %7 = load float, ptr %am.addr, align 4
  %8 = load float, ptr %bm.addr, align 4
  %9 = load float, ptr %xm.addr, align 4
  %call = call noundef float @_ZN7msdfgen6medianIfEET_S1_S1_S1_(float noundef %7, float noundef %8, float noundef %9)
  %10 = load float, ptr %xm.addr, align 4
  %cmp12 = fcmp une float %call, %10
  br i1 %cmp12, label %if.then, label %if.end34

if.then:                                          ; preds = %land.lhs.true11, %land.lhs.true8, %land.lhs.true3
  %11 = load double, ptr %xt.addr, align 8
  %12 = load double, ptr %at.addr, align 8
  %sub = fsub double %11, %12
  %span = getelementptr inbounds %"class.msdfgen::BaseArtifactClassifier", ptr %this1, i32 0, i32 0
  %13 = load double, ptr %span, align 8
  %mul = fmul double %sub, %13
  store double %mul, ptr %axSpan, align 8
  %14 = load double, ptr %bt.addr, align 8
  %15 = load double, ptr %xt.addr, align 8
  %sub13 = fsub double %14, %15
  %span14 = getelementptr inbounds %"class.msdfgen::BaseArtifactClassifier", ptr %this1, i32 0, i32 0
  %16 = load double, ptr %span14, align 8
  %mul15 = fmul double %sub13, %16
  store double %mul15, ptr %bxSpan, align 8
  %17 = load float, ptr %xm.addr, align 4
  %conv = fpext float %17 to double
  %18 = load float, ptr %am.addr, align 4
  %conv16 = fpext float %18 to double
  %19 = load double, ptr %axSpan, align 8
  %sub17 = fsub double %conv16, %19
  %cmp18 = fcmp oge double %conv, %sub17
  br i1 %cmp18, label %land.lhs.true19, label %if.then33

land.lhs.true19:                                  ; preds = %if.then
  %20 = load float, ptr %xm.addr, align 4
  %conv20 = fpext float %20 to double
  %21 = load float, ptr %am.addr, align 4
  %conv21 = fpext float %21 to double
  %22 = load double, ptr %axSpan, align 8
  %add = fadd double %conv21, %22
  %cmp22 = fcmp ole double %conv20, %add
  br i1 %cmp22, label %land.lhs.true23, label %if.then33

land.lhs.true23:                                  ; preds = %land.lhs.true19
  %23 = load float, ptr %xm.addr, align 4
  %conv24 = fpext float %23 to double
  %24 = load float, ptr %bm.addr, align 4
  %conv25 = fpext float %24 to double
  %25 = load double, ptr %bxSpan, align 8
  %sub26 = fsub double %conv25, %25
  %cmp27 = fcmp oge double %conv24, %sub26
  br i1 %cmp27, label %land.lhs.true28, label %if.then33

land.lhs.true28:                                  ; preds = %land.lhs.true23
  %26 = load float, ptr %xm.addr, align 4
  %conv29 = fpext float %26 to double
  %27 = load float, ptr %bm.addr, align 4
  %conv30 = fpext float %27 to double
  %28 = load double, ptr %bxSpan, align 8
  %add31 = fadd double %conv30, %28
  %cmp32 = fcmp ole double %conv29, %add31
  br i1 %cmp32, label %if.end, label %if.then33

if.then33:                                        ; preds = %land.lhs.true28, %land.lhs.true23, %land.lhs.true19, %if.then
  store i32 3, ptr %retval, align 4
  br label %return

if.end:                                           ; preds = %land.lhs.true28
  store i32 1, ptr %retval, align 4
  br label %return

if.end34:                                         ; preds = %land.lhs.true11, %lor.lhs.false10
  store i32 0, ptr %retval, align 4
  br label %return

return:                                           ; preds = %if.end34, %if.end, %if.then33
  %29 = load i32, ptr %retval, align 4
  ret i32 %29
}

; Function Attrs: mustprogress uwtable
define internal noundef float @_ZN7msdfgenL18interpolatedMedianEPKfS1_d(ptr noundef %a, ptr noundef %b, double noundef %t) #0 {
entry:
  %a.addr = alloca ptr, align 8
  %b.addr = alloca ptr, align 8
  %t.addr = alloca double, align 8
  store ptr %a, ptr %a.addr, align 8
  store ptr %b, ptr %b.addr, align 8
  store double %t, ptr %t.addr, align 8
  %0 = load ptr, ptr %a.addr, align 8
  %arrayidx = getelementptr inbounds float, ptr %0, i64 0
  %1 = load float, ptr %arrayidx, align 4
  %2 = load ptr, ptr %b.addr, align 8
  %arrayidx1 = getelementptr inbounds float, ptr %2, i64 0
  %3 = load float, ptr %arrayidx1, align 4
  %4 = load double, ptr %t.addr, align 8
  %call = call noundef float @_ZN7msdfgen3mixIfdEET_S1_S1_T0_(float noundef %1, float noundef %3, double noundef %4)
  %5 = load ptr, ptr %a.addr, align 8
  %arrayidx2 = getelementptr inbounds float, ptr %5, i64 1
  %6 = load float, ptr %arrayidx2, align 4
  %7 = load ptr, ptr %b.addr, align 8
  %arrayidx3 = getelementptr inbounds float, ptr %7, i64 1
  %8 = load float, ptr %arrayidx3, align 4
  %9 = load double, ptr %t.addr, align 8
  %call4 = call noundef float @_ZN7msdfgen3mixIfdEET_S1_S1_T0_(float noundef %6, float noundef %8, double noundef %9)
  %10 = load ptr, ptr %a.addr, align 8
  %arrayidx5 = getelementptr inbounds float, ptr %10, i64 2
  %11 = load float, ptr %arrayidx5, align 4
  %12 = load ptr, ptr %b.addr, align 8
  %arrayidx6 = getelementptr inbounds float, ptr %12, i64 2
  %13 = load float, ptr %arrayidx6, align 4
  %14 = load double, ptr %t.addr, align 8
  %call7 = call noundef float @_ZN7msdfgen3mixIfdEET_S1_S1_T0_(float noundef %11, float noundef %13, double noundef %14)
  %call8 = call noundef float @_ZN7msdfgen6medianIfEET_S1_S1_S1_(float noundef %call, float noundef %call4, float noundef %call7)
  ret float %call8
}

; Function Attrs: mustprogress uwtable
define internal noundef zeroext i1 @_ZN7msdfgenL22hasLinearArtifactInnerINS_22BaseArtifactClassifierEEEbRKT_ffPKfS6_ff(ptr noundef nonnull align 8 dereferenceable(9) %artifactClassifier, float noundef %am, float noundef %bm, ptr noundef %a, ptr noundef %b, float noundef %dA, float noundef %dB) #0 {
entry:
  %retval = alloca i1, align 1
  %artifactClassifier.addr = alloca ptr, align 8
  %am.addr = alloca float, align 4
  %bm.addr = alloca float, align 4
  %a.addr = alloca ptr, align 8
  %b.addr = alloca ptr, align 8
  %dA.addr = alloca float, align 4
  %dB.addr = alloca float, align 4
  %t = alloca double, align 8
  %xm = alloca float, align 4
  store ptr %artifactClassifier, ptr %artifactClassifier.addr, align 8
  store float %am, ptr %am.addr, align 4
  store float %bm, ptr %bm.addr, align 4
  store ptr %a, ptr %a.addr, align 8
  store ptr %b, ptr %b.addr, align 8
  store float %dA, ptr %dA.addr, align 4
  store float %dB, ptr %dB.addr, align 4
  %0 = load float, ptr %dA.addr, align 4
  %conv = fpext float %0 to double
  %1 = load float, ptr %dA.addr, align 4
  %2 = load float, ptr %dB.addr, align 4
  %sub = fsub float %1, %2
  %conv1 = fpext float %sub to double
  %div = fdiv double %conv, %conv1
  store double %div, ptr %t, align 8
  %3 = load double, ptr %t, align 8
  %cmp = fcmp ogt double %3, 1.000000e-02
  br i1 %cmp, label %land.lhs.true, label %if.end

land.lhs.true:                                    ; preds = %entry
  %4 = load double, ptr %t, align 8
  %cmp2 = fcmp olt double %4, 0x3FEFAE147AE147AE
  br i1 %cmp2, label %if.then, label %if.end

if.then:                                          ; preds = %land.lhs.true
  %5 = load ptr, ptr %a.addr, align 8
  %6 = load ptr, ptr %b.addr, align 8
  %7 = load double, ptr %t, align 8
  %call = call noundef float @_ZN7msdfgenL18interpolatedMedianEPKfS1_d(ptr noundef %5, ptr noundef %6, double noundef %7)
  store float %call, ptr %xm, align 4
  %8 = load ptr, ptr %artifactClassifier.addr, align 8
  %9 = load double, ptr %t, align 8
  %10 = load float, ptr %xm, align 4
  %11 = load ptr, ptr %artifactClassifier.addr, align 8
  %12 = load double, ptr %t, align 8
  %13 = load float, ptr %am.addr, align 4
  %14 = load float, ptr %bm.addr, align 4
  %15 = load float, ptr %xm, align 4
  %call3 = call noundef i32 @_ZNK7msdfgen22BaseArtifactClassifier9rangeTestEdddfff(ptr noundef nonnull align 8 dereferenceable(9) %11, double noundef 0.000000e+00, double noundef 1.000000e+00, double noundef %12, float noundef %13, float noundef %14, float noundef %15)
  %call4 = call noundef zeroext i1 @_ZNK7msdfgen22BaseArtifactClassifier8evaluateEdfi(ptr noundef nonnull align 8 dereferenceable(9) %8, double noundef %9, float noundef %10, i32 noundef %call3)
  store i1 %call4, ptr %retval, align 1
  br label %return

if.end:                                           ; preds = %land.lhs.true, %entry
  store i1 false, ptr %retval, align 1
  br label %return

return:                                           ; preds = %if.end, %if.then
  %16 = load i1, ptr %retval, align 1
  ret i1 %16
}